; Function Attrs: mustprogress uwtable
define noundef i64 @_ZN11OpenImageIO6v3_1_08farmhash14Hash64WithSeedEPKcmm(ptr noundef %0, i64 noundef %1, i64 noundef %2) local_unnamed_addr #3 {
  %4 = tail call noundef i64 @_ZN11OpenImageIO6v3_1_08farmhash10farmhashna6Hash64EPKcm(ptr noundef %0, i64 noundef %1)
  %5 = add i64 %4, 7286425919675154353
  %6 = xor i64 %5, %2
  %7 = mul i64 %6, -7070675565921424023
  %8 = lshr i64 %7, 47
  %9 = xor i64 %2, %8
  %10 = xor i64 %9, %7
  %11 = mul i64 %10, -7070675565921424023
  %12 = lshr i64 %11, 47
  %13 = xor i64 %12, %11
  %14 = mul i64 %13, -7070675565921424023
  ret i64 %14
}